#include <math.h>
#include <stdio.h>
#include <stdlib.h>
#include <string.h>

int main()
{
    char a[101];
    int i,t;
    gets(a);
    t=1;
    for(i=0;a[i]!='\0';i++)
    {	
	if(a[i]==' ')
	{
	    if(t==1)
	    {
		printf(" ");
		t++;
	    }
	}
	else
	{
	    printf("%c",a[i]);
	    t=1;
	}
    }
	return 0;
}

